; Function Attrs: mustprogress uwtable
define hidden noundef i32 @_ZN7datalog24external_relation_plugin13get_family_idEv(ptr nocapture noundef nonnull readonly align 8 dereferenceable(48) %this) local_unnamed_addr #3 align 2 {
entry:
  %m_ext = getelementptr inbounds i8, ptr %this, i64 40
  %0 = load ptr, ptr %m_ext, align 8
  %vtable = load ptr, ptr %0, align 8
  %vfn = getelementptr inbounds i8, ptr %vtable, i64 16
  %1 = load ptr, ptr %vfn, align 8
  %call = tail call noundef i32 %1(ptr noundef nonnull align 8 dereferenceable(8) %0)
  ret i32 %call
}